; Function Attrs: mustprogress nounwind uwtable
define hidden noundef i64 @_ZN15XMarkStackSpace12expand_spaceEv(ptr noundef nonnull align 8 dereferenceable(64) %0) local_unnamed_addr #0 align 2 {
  %2 = getelementptr inbounds i8, ptr %0, i64 56
  %3 = load volatile i64, ptr %2, align 8
  %4 = getelementptr inbounds i8, ptr %0, i64 40
  %5 = load i64, ptr %4, align 8
  %6 = sub i64 %3, %5
  %7 = add i64 %6, 33554432
  %8 = load i64, ptr @ZMarkStackSpaceLimit, align 8
  %9 = icmp ugt i64 %7, %8
  br i1 %9, label %10, label %14

10:                                               ; preds = %1
  %11 = load ptr, ptr @g_assert_poison, align 8
  store i8 88, ptr %11, align 1
  %12 = load i64, ptr @ZMarkStackSpaceLimit, align 8
  %13 = lshr i64 %12, 20
  tail call void (i32, ptr, i32, ptr, ...) @_Z12report_fatal11VMErrorTypePKciS1_z(i32 noundef -536870912, ptr noundef nonnull @.str.4, i32 noundef 84, ptr noundef nonnull @.str.5, i64 noundef %13) #11
  unreachable

14:                                               ; preds = %1
  %15 = load volatile ptr, ptr getelementptr inbounds (i8, ptr @_ZN16LogTagSetMappingILN6LogTag4typeE49ELS1_80ELS1_0ELS1_0ELS1_0ELS1_0EE7_tagsetE, i64 56), align 8
  %.not = icmp eq ptr %15, null
  br i1 %.not, label %19, label %16

16:                                               ; preds = %14
  %17 = lshr i64 %6, 20
  %18 = lshr i64 %7, 20
  tail call void (ptr, ...) @_ZN7LogImplILN6LogTag4typeE49ELS1_80ELS1_0ELS1_0ELS1_0ELS1_0EE5writeILN8LogLevel4typeE2EEEvPKcz(ptr noundef nonnull @.str.6, i64 noundef %17, i64 noundef %18)
  br label %19

19:                                               ; preds = %14, %16
  %20 = load volatile i64, ptr %2, align 8
  %21 = inttoptr i64 %20 to ptr
  tail call void @_ZN2os21commit_memory_or_exitEPcmbPKc(ptr noundef %21, i64 noundef 33554432, i1 noundef zeroext false, ptr noundef nonnull @.str.7) #10
  ret i64 33554432
}